target datalayout = "e-m:e-p270:32:32-p271:32:32-p272:64:64-i64:64-i128:128-f80:128-n8:16:32:64-S128"
target triple = "x86_64-pc-linux-gnu"

%"class.cvc5::internal::FloatingPointSize" = type { i32, i32 }
%"class.cvc5::internal::symfpuLiteral::wrappedBitVector.0" = type { %"class.cvc5::internal::BitVector" }
%"class.cvc5::internal::BitVector" = type { i32, %"class.cvc5::internal::Integer" }
%"class.cvc5::internal::Integer" = type { %class.__gmp_expr }
%class.__gmp_expr = type { [1 x %struct.__mpz_struct] }
%struct.__mpz_struct = type { i32, i32, ptr }
%"class.cvc5::internal::FloatingPointLiteral" = type { %"class.cvc5::internal::FloatingPointSize", %"class.symfpu::unpackedFloat" }
%"class.symfpu::unpackedFloat" = type { i8, i8, i8, i8, %"class.cvc5::internal::symfpuLiteral::wrappedBitVector", %"class.cvc5::internal::symfpuLiteral::wrappedBitVector.0" }
%"class.cvc5::internal::symfpuLiteral::wrappedBitVector" = type { %"class.cvc5::internal::BitVector" }

; Function Attrs: mustprogress uwtable
define linkonce_odr hidden void @_ZN10__gmp_exprIA1_12__mpz_structS1_EC2ERKS2_(ptr noundef nonnull align 8 dereferenceable(16) %0, ptr noundef nonnull align 8 dereferenceable(16) %1) unnamed_addr #4 comdat align 2 {
  %3 = alloca ptr, align 8
  %4 = alloca ptr, align 8
  store ptr %0, ptr %3, align 8, !tbaa !55
  store ptr %1, ptr %4, align 8, !tbaa !55
  %5 = load ptr, ptr %3, align 8
  %6 = getelementptr inbounds nuw %class.__gmp_expr, ptr %5, i32 0, i32 0
  %7 = getelementptr inbounds [1 x %struct.__mpz_struct], ptr %6, i64 0, i64 0
  %8 = load ptr, ptr %4, align 8, !tbaa !55
  %9 = getelementptr inbounds nuw %class.__gmp_expr, ptr %8, i32 0, i32 0
  %10 = getelementptr inbounds [1 x %struct.__mpz_struct], ptr %9, i64 0, i64 0
  call void @__gmpz_init_set(ptr noundef %7, ptr noundef %10)
  ret void
}

; Function Attrs: mustprogress nounwind uwtable
define linkonce_odr hidden void @_ZN10__gmp_exprIA1_12__mpz_structS1_ED2Ev(ptr noundef nonnull align 8 dereferenceable(16) %0) unnamed_addr #5 comdat align 2 personality ptr @__gxx_personality_v0 {
  %2 = alloca ptr, align 8
  store ptr %0, ptr %2, align 8, !tbaa !55
  %3 = load ptr, ptr %2, align 8
  %4 = getelementptr inbounds nuw %class.__gmp_expr, ptr %3, i32 0, i32 0
  %5 = getelementptr inbounds [1 x %struct.__mpz_struct], ptr %4, i64 0, i64 0
  invoke void @__gmpz_clear(ptr noundef %5)
          to label %6 unwind label %7

6:                                                ; preds = %1
  ret void

7:                                                ; preds = %1
  %8 = landingpad { ptr, i32 }
          catch ptr null
  %9 = extractvalue { ptr, i32 } %8, 0
  call void @__clang_call_terminate(ptr %9) #14
  unreachable
}

; Function Attrs: mustprogress uwtable
define linkonce_odr hidden void @_ZN4cvc58internal7IntegerC2ERKS1_(ptr noundef nonnull align 8 dereferenceable(16) %0, ptr noundef nonnull align 8 dereferenceable(16) %1) unnamed_addr #4 comdat align 2 {
  %3 = alloca ptr, align 8
  %4 = alloca ptr, align 8
  store ptr %0, ptr %3, align 8, !tbaa !53
  store ptr %1, ptr %4, align 8, !tbaa !53
  %5 = load ptr, ptr %3, align 8
  %6 = getelementptr inbounds nuw %"class.cvc5::internal::Integer", ptr %5, i32 0, i32 0
  %7 = load ptr, ptr %4, align 8, !tbaa !53
  %8 = getelementptr inbounds nuw %"class.cvc5::internal::Integer", ptr %7, i32 0, i32 0
  call void @_ZN10__gmp_exprIA1_12__mpz_structS1_EC2ERKS2_(ptr noundef nonnull align 8 dereferenceable(16) %6, ptr noundef nonnull align 8 dereferenceable(16) %8)
  ret void
}

; Function Attrs: mustprogress nounwind uwtable
define linkonce_odr hidden void @_ZN4cvc58internal7IntegerD2Ev(ptr noundef nonnull align 8 dereferenceable(16) %0) unnamed_addr #5 comdat align 2 {
  %2 = alloca ptr, align 8
  store ptr %0, ptr %2, align 8, !tbaa !53
  %3 = load ptr, ptr %2, align 8
  %4 = getelementptr inbounds nuw %"class.cvc5::internal::Integer", ptr %3, i32 0, i32 0
  call void @_ZN10__gmp_exprIA1_12__mpz_structS1_ED2Ev(ptr noundef nonnull align 8 dereferenceable(16) %4) #3
  ret void
}

; Function Attrs: inlinehint mustprogress uwtable
define linkonce_odr hidden void @_ZN4cvc58internal9BitVectorC2ERKS1_(ptr noundef nonnull align 8 dereferenceable(24) %0, ptr noundef nonnull align 8 dereferenceable(24) %1) unnamed_addr #7 comdat align 2 {
  %3 = alloca ptr, align 8
  %4 = alloca ptr, align 8
  store ptr %0, ptr %3, align 8, !tbaa !12
  store ptr %1, ptr %4, align 8, !tbaa !12
  %5 = load ptr, ptr %3, align 8
  %6 = getelementptr inbounds nuw %"class.cvc5::internal::BitVector", ptr %5, i32 0, i32 0
  %7 = load ptr, ptr %4, align 8, !tbaa !12
  %8 = getelementptr inbounds nuw %"class.cvc5::internal::BitVector", ptr %7, i32 0, i32 0
  %9 = load i32, ptr %8, align 8, !tbaa !35
  store i32 %9, ptr %6, align 8, !tbaa !35
  %10 = getelementptr inbounds nuw %"class.cvc5::internal::BitVector", ptr %5, i32 0, i32 1
  %11 = load ptr, ptr %4, align 8, !tbaa !12
  %12 = getelementptr inbounds nuw %"class.cvc5::internal::BitVector", ptr %11, i32 0, i32 1
  call void @_ZN4cvc58internal7IntegerC2ERKS1_(ptr noundef nonnull align 8 dereferenceable(16) %10, ptr noundef nonnull align 8 dereferenceable(16) %12)
  ret void
}

; Function Attrs: mustprogress nounwind uwtable
define linkonce_odr hidden void @_ZN4cvc58internal9BitVectorD2Ev(ptr noundef nonnull align 8 dereferenceable(24) %0) unnamed_addr #5 comdat align 2 {
  %2 = alloca ptr, align 8
  store ptr %0, ptr %2, align 8, !tbaa !12
  %3 = load ptr, ptr %2, align 8
  %4 = getelementptr inbounds nuw %"class.cvc5::internal::BitVector", ptr %3, i32 0, i32 1
  call void @_ZN4cvc58internal7IntegerD2Ev(ptr noundef nonnull align 8 dereferenceable(16) %4) #3
  ret void
}

; Function Attrs: mustprogress uwtable
define linkonce_odr hidden void @_ZN4cvc58internal13symfpuLiteral16wrappedBitVectorILb0EEC2ERKS3_(ptr noundef nonnull align 8 dereferenceable(24) %0, ptr noundef nonnull align 8 dereferenceable(24) %1) unnamed_addr #4 comdat align 2 {
  %3 = alloca ptr, align 8
  %4 = alloca ptr, align 8
  store ptr %0, ptr %3, align 8, !tbaa !14
  store ptr %1, ptr %4, align 8, !tbaa !14
  %5 = load ptr, ptr %3, align 8
  %6 = load ptr, ptr %4, align 8, !tbaa !14
  call void @_ZN4cvc58internal9BitVectorC2ERKS1_(ptr noundef nonnull align 8 dereferenceable(24) %5, ptr noundef nonnull align 8 dereferenceable(24) %6)
  ret void
}

; Function Attrs: mustprogress uwtable
define linkonce_odr hidden void @_ZN4cvc58internal13symfpuLiteral16wrappedBitVectorILb1EEC2ERKS3_(ptr noundef nonnull align 8 dereferenceable(24) %0, ptr noundef nonnull align 8 dereferenceable(24) %1) unnamed_addr #4 comdat align 2 {
  %3 = alloca ptr, align 8
  %4 = alloca ptr, align 8
  store ptr %0, ptr %3, align 8, !tbaa !29
  store ptr %1, ptr %4, align 8, !tbaa !29
  %5 = load ptr, ptr %3, align 8
  %6 = load ptr, ptr %4, align 8, !tbaa !29
  call void @_ZN4cvc58internal9BitVectorC2ERKS1_(ptr noundef nonnull align 8 dereferenceable(24) %5, ptr noundef nonnull align 8 dereferenceable(24) %6)
  ret void
}

; Function Attrs: mustprogress uwtable
define linkonce_odr hidden void @_ZN6symfpu13unpackedFloatIN4cvc58internal13symfpuLiteral6traitsEEC2ERKS5_(ptr noundef nonnull align 8 dereferenceable(56) %0, ptr noundef nonnull align 8 dereferenceable(56) %1) unnamed_addr #4 comdat align 2 personality ptr @__gxx_personality_v0 {
  %3 = alloca ptr, align 8
  %4 = alloca ptr, align 8
  %5 = alloca ptr, align 8
  %6 = alloca i32, align 4
  store ptr %0, ptr %3, align 8, !tbaa !33
  store ptr %1, ptr %4, align 8, !tbaa !33
  %7 = load ptr, ptr %3, align 8
  %8 = getelementptr inbounds nuw %"class.symfpu::unpackedFloat", ptr %7, i32 0, i32 0
  %9 = load ptr, ptr %4, align 8, !tbaa !33
  %10 = getelementptr inbounds nuw %"class.symfpu::unpackedFloat", ptr %9, i32 0, i32 0
  %11 = load i8, ptr %10, align 8, !tbaa !57, !range !18, !noundef !19
  %12 = trunc i8 %11 to i1
  %13 = zext i1 %12 to i8
  store i8 %13, ptr %8, align 8, !tbaa !57
  %14 = getelementptr inbounds nuw %"class.symfpu::unpackedFloat", ptr %7, i32 0, i32 1
  %15 = load ptr, ptr %4, align 8, !tbaa !33
  %16 = getelementptr inbounds nuw %"class.symfpu::unpackedFloat", ptr %15, i32 0, i32 1
  %17 = load i8, ptr %16, align 1, !tbaa !58, !range !18, !noundef !19
  %18 = trunc i8 %17 to i1
  %19 = zext i1 %18 to i8
  store i8 %19, ptr %14, align 1, !tbaa !58
  %20 = getelementptr inbounds nuw %"class.symfpu::unpackedFloat", ptr %7, i32 0, i32 2
  %21 = load ptr, ptr %4, align 8, !tbaa !33
  %22 = getelementptr inbounds nuw %"class.symfpu::unpackedFloat", ptr %21, i32 0, i32 2
  %23 = load i8, ptr %22, align 2, !tbaa !59, !range !18, !noundef !19
  %24 = trunc i8 %23 to i1
  %25 = zext i1 %24 to i8
  store i8 %25, ptr %20, align 2, !tbaa !59
  %26 = getelementptr inbounds nuw %"class.symfpu::unpackedFloat", ptr %7, i32 0, i32 3
  %27 = load ptr, ptr %4, align 8, !tbaa !33
  %28 = getelementptr inbounds nuw %"class.symfpu::unpackedFloat", ptr %27, i32 0, i32 3
  %29 = load i8, ptr %28, align 1, !tbaa !60, !range !18, !noundef !19
  %30 = trunc i8 %29 to i1
  %31 = zext i1 %30 to i8
  store i8 %31, ptr %26, align 1, !tbaa !60
  %32 = getelementptr inbounds nuw %"class.symfpu::unpackedFloat", ptr %7, i32 0, i32 4
  %33 = load ptr, ptr %4, align 8, !tbaa !33
  %34 = getelementptr inbounds nuw %"class.symfpu::unpackedFloat", ptr %33, i32 0, i32 4
  call void @_ZN4cvc58internal13symfpuLiteral16wrappedBitVectorILb1EEC2ERKS3_(ptr noundef nonnull align 8 dereferenceable(24) %32, ptr noundef nonnull align 8 dereferenceable(24) %34)
  %35 = getelementptr inbounds nuw %"class.symfpu::unpackedFloat", ptr %7, i32 0, i32 5
  %36 = load ptr, ptr %4, align 8, !tbaa !33
  %37 = getelementptr inbounds nuw %"class.symfpu::unpackedFloat", ptr %36, i32 0, i32 5
  invoke void @_ZN4cvc58internal13symfpuLiteral16wrappedBitVectorILb0EEC2ERKS3_(ptr noundef nonnull align 8 dereferenceable(24) %35, ptr noundef nonnull align 8 dereferenceable(24) %37)
          to label %38 unwind label %39

38:                                               ; preds = %2
  ret void

39:                                               ; preds = %2
  %40 = landingpad { ptr, i32 }
          cleanup
  %41 = extractvalue { ptr, i32 } %40, 0
  store ptr %41, ptr %5, align 8
  %42 = extractvalue { ptr, i32 } %40, 1
  store i32 %42, ptr %6, align 4
  call void @_ZN4cvc58internal9BitVectorD2Ev(ptr noundef nonnull align 8 dereferenceable(24) %32) #3
  br label %43

43:                                               ; preds = %39
  %44 = load ptr, ptr %5, align 8
  %45 = load i32, ptr %6, align 4
  %46 = insertvalue { ptr, i32 } poison, ptr %44, 0
  %47 = insertvalue { ptr, i32 } %46, i32 %45, 1
  resume { ptr, i32 } %47
}

; Function Attrs: mustprogress uwtable
define linkonce_odr hidden void @_ZN4cvc58internal20FloatingPointLiteralC2ERKNS0_17FloatingPointSizeEN6symfpu13unpackedFloatINS0_13symfpuLiteral6traitsEEE(ptr noundef nonnull align 8 dereferenceable(64) %0, ptr noundef nonnull align 4 dereferenceable(8) %1, ptr noundef %2) unnamed_addr #4 comdat align 2 {
  %4 = alloca ptr, align 8
  %5 = alloca ptr, align 8
  %6 = alloca ptr, align 8
  store ptr %0, ptr %4, align 8, !tbaa !10
  store ptr %1, ptr %5, align 8, !tbaa !3
  store ptr %2, ptr %6, align 8, !tbaa !33
  %7 = load ptr, ptr %4, align 8
  %8 = getelementptr inbounds nuw %"class.cvc5::internal::FloatingPointLiteral", ptr %7, i32 0, i32 0
  %9 = load ptr, ptr %5, align 8, !tbaa !3
  call void @_ZN4cvc58internal17FloatingPointSizeC1ERKS1_(ptr noundef nonnull align 4 dereferenceable(8) %8, ptr noundef nonnull align 4 dereferenceable(8) %9)
  %10 = getelementptr inbounds nuw %"class.cvc5::internal::FloatingPointLiteral", ptr %7, i32 0, i32 1
  call void @_ZN6symfpu13unpackedFloatIN4cvc58internal13symfpuLiteral6traitsEEC2ERKS5_(ptr noundef nonnull align 8 dereferenceable(56) %10, ptr noundef nonnull align 8 dereferenceable(56) %2)
  ret void
}

; Function Attrs: mustprogress uwtable
define hidden void @_ZNK4cvc58internal20FloatingPointLiteral7convertERKNS0_17FloatingPointSizeERKNS0_12RoundingModeE(ptr dead_on_unwind noalias writable sret(%"class.cvc5::internal::FloatingPointLiteral") align 8 %0, ptr noundef nonnull align 8 dereferenceable(64) %1, ptr noundef nonnull align 4 dereferenceable(8) %2, ptr noundef nonnull align 4 dereferenceable(4) %3) #4 align 2 personality ptr @__gxx_personality_v0 {
  %5 = alloca ptr, align 8
  %6 = alloca ptr, align 8
  %7 = alloca ptr, align 8
  %8 = alloca ptr, align 8
  %9 = alloca %"class.symfpu::unpackedFloat", align 8
  %10 = alloca ptr, align 8
  %11 = alloca i32, align 4
  store ptr %0, ptr %5, align 8
  store ptr %1, ptr %6, align 8, !tbaa !10
  store ptr %2, ptr %7, align 8, !tbaa !3
  store ptr %3, ptr %8, align 8, !tbaa !26
  %12 = load ptr, ptr %6, align 8
  %13 = load ptr, ptr %7, align 8, !tbaa !3
  %14 = getelementptr inbounds nuw %"class.cvc5::internal::FloatingPointLiteral", ptr %12, i32 0, i32 0
  %15 = load ptr, ptr %7, align 8, !tbaa !3
  %16 = load ptr, ptr %8, align 8, !tbaa !26
  %17 = getelementptr inbounds nuw %"class.cvc5::internal::FloatingPointLiteral", ptr %12, i32 0, i32 1
  call void @_ZN6symfpu19convertFloatToFloatIN4cvc58internal13symfpuLiteral6traitsEEENS_13unpackedFloatIT_EERKNS6_3fptESA_RKNS6_2rmERKS7_(ptr dead_on_unwind writable sret(%"class.symfpu::unpackedFloat") align 8 %9, ptr noundef nonnull align 4 dereferenceable(8) %14, ptr noundef nonnull align 4 dereferenceable(8) %15, ptr noundef nonnull align 4 dereferenceable(4) %16, ptr noundef nonnull align 8 dereferenceable(56) %17)
  invoke void @_ZN4cvc58internal20FloatingPointLiteralC2ERKNS0_17FloatingPointSizeEN6symfpu13unpackedFloatINS0_13symfpuLiteral6traitsEEE(ptr noundef nonnull align 8 dereferenceable(64) %0, ptr noundef nonnull align 4 dereferenceable(8) %13, ptr noundef %9)
          to label %18 unwind label %19

18:                                               ; preds = %4
  call void @_ZN6symfpu13unpackedFloatIN4cvc58internal13symfpuLiteral6traitsEED2Ev(ptr noundef nonnull align 8 dereferenceable(56) %9) #3
  ret void

19:                                               ; preds = %4
  %20 = landingpad { ptr, i32 }
          cleanup
  %21 = extractvalue { ptr, i32 } %20, 0
  store ptr %21, ptr %10, align 8
  %22 = extractvalue { ptr, i32 } %20, 1
  store i32 %22, ptr %11, align 4
  call void @_ZN6symfpu13unpackedFloatIN4cvc58internal13symfpuLiteral6traitsEED2Ev(ptr noundef nonnull align 8 dereferenceable(56) %9) #3
  br label %23

23:                                               ; preds = %19
  %24 = load ptr, ptr %10, align 8
  %25 = load i32, ptr %11, align 4
  %26 = insertvalue { ptr, i32 } poison, ptr %24, 0
  %27 = insertvalue { ptr, i32 } %26, i32 %25, 1
  resume { ptr, i32 } %27
}