; Function Attrs: mustprogress uwtable
define hidden void @_ZNK4cvc58internal20FloatingPointLiteral7convertERKNS0_17FloatingPointSizeERKNS0_12RoundingModeE(ptr dead_on_unwind noalias writable sret(%"class.cvc5::internal::FloatingPointLiteral") align 8 %0, ptr noundef nonnull align 8 dereferenceable(64) %1, ptr noundef nonnull align 4 dereferenceable(8) %2, ptr noundef nonnull align 4 dereferenceable(4) %3) local_unnamed_addr #4 align 2 personality ptr @__gxx_personality_v0 {
  %5 = alloca %"class.symfpu::unpackedFloat", align 8
  %6 = getelementptr inbounds nuw i8, ptr %1, i64 8
  call void @_ZN6symfpu19convertFloatToFloatIN4cvc58internal13symfpuLiteral6traitsEEENS_13unpackedFloatIT_EERKNS6_3fptESA_RKNS6_2rmERKS7_(ptr dead_on_unwind nonnull writable sret(%"class.symfpu::unpackedFloat") align 8 %5, ptr noundef nonnull align 4 dereferenceable(8) %1, ptr noundef nonnull align 4 dereferenceable(8) %2, ptr noundef nonnull align 4 dereferenceable(4) %3, ptr noundef nonnull align 8 dereferenceable(56) %6)
  invoke void @_ZN4cvc58internal17FloatingPointSizeC1ERKS1_(ptr noundef nonnull align 8 dereferenceable(64) %0, ptr noundef nonnull align 4 dereferenceable(8) %2)
          to label %.noexc unwind label %39

.noexc:                                           ; preds = %4
  %7 = getelementptr inbounds nuw i8, ptr %0, i64 8
  %8 = load i8, ptr %5, align 8, !tbaa !15, !range !21, !noundef !22
  store i8 %8, ptr %7, align 8, !tbaa !15
  %9 = getelementptr inbounds nuw i8, ptr %0, i64 9
  %10 = getelementptr inbounds nuw i8, ptr %5, i64 1
  %11 = load i8, ptr %10, align 1, !tbaa !19, !range !21, !noundef !22
  store i8 %11, ptr %9, align 1, !tbaa !19
  %12 = getelementptr inbounds nuw i8, ptr %0, i64 10
  %13 = getelementptr inbounds nuw i8, ptr %5, i64 2
  %14 = load i8, ptr %13, align 2, !tbaa !20, !range !21, !noundef !22
  store i8 %14, ptr %12, align 2, !tbaa !20
  %15 = getelementptr inbounds nuw i8, ptr %0, i64 11
  %16 = getelementptr inbounds nuw i8, ptr %5, i64 3
  %17 = load i8, ptr %16, align 1, !tbaa !23, !range !21, !noundef !22
  store i8 %17, ptr %15, align 1, !tbaa !23
  %18 = getelementptr inbounds nuw i8, ptr %0, i64 16
  %19 = getelementptr inbounds nuw i8, ptr %5, i64 8
  %20 = load i32, ptr %19, align 8, !tbaa !9
  store i32 %20, ptr %18, align 8, !tbaa !9
  %21 = getelementptr inbounds nuw i8, ptr %0, i64 24
  %22 = getelementptr inbounds nuw i8, ptr %5, i64 16
  invoke void @__gmpz_init_set(ptr noundef nonnull align 8 dereferenceable(16) %21, ptr noundef nonnull align 8 dereferenceable(16) %22)
          to label %.noexc5 unwind label %39

.noexc5:                                          ; preds = %.noexc
  %23 = getelementptr inbounds nuw i8, ptr %0, i64 40
  %24 = getelementptr inbounds nuw i8, ptr %5, i64 32
  %25 = load i32, ptr %24, align 8, !tbaa !9
  store i32 %25, ptr %23, align 8, !tbaa !9
  %26 = getelementptr inbounds nuw i8, ptr %0, i64 48
  %27 = getelementptr inbounds nuw i8, ptr %5, i64 40
  invoke void @__gmpz_init_set(ptr noundef nonnull align 8 dereferenceable(16) %26, ptr noundef nonnull align 8 dereferenceable(16) %27)
          to label %_ZN4cvc58internal20FloatingPointLiteralC2ERKNS0_17FloatingPointSizeEN6symfpu13unpackedFloatINS0_13symfpuLiteral6traitsEEE.exit unwind label %28

28:                                               ; preds = %.noexc5
  %29 = landingpad { ptr, i32 }
          cleanup
  invoke void @__gmpz_clear(ptr noundef nonnull align 8 dereferenceable(16) %21)
          to label %.body unwind label %30

30:                                               ; preds = %28
  %31 = landingpad { ptr, i32 }
          catch ptr null
  %32 = extractvalue { ptr, i32 } %31, 0
  call void @__clang_call_terminate(ptr %32) #17
  unreachable

_ZN4cvc58internal20FloatingPointLiteralC2ERKNS0_17FloatingPointSizeEN6symfpu13unpackedFloatINS0_13symfpuLiteral6traitsEEE.exit: ; preds = %.noexc5
  invoke void @__gmpz_clear(ptr noundef nonnull align 8 dereferenceable(16) %27)
          to label %_ZN4cvc58internal9BitVectorD2Ev.exit.i unwind label %33

33:                                               ; preds = %_ZN4cvc58internal20FloatingPointLiteralC2ERKNS0_17FloatingPointSizeEN6symfpu13unpackedFloatINS0_13symfpuLiteral6traitsEEE.exit
  %34 = landingpad { ptr, i32 }
          catch ptr null
  %35 = extractvalue { ptr, i32 } %34, 0
  call void @__clang_call_terminate(ptr %35) #17
  unreachable

_ZN4cvc58internal9BitVectorD2Ev.exit.i:           ; preds = %_ZN4cvc58internal20FloatingPointLiteralC2ERKNS0_17FloatingPointSizeEN6symfpu13unpackedFloatINS0_13symfpuLiteral6traitsEEE.exit
  invoke void @__gmpz_clear(ptr noundef nonnull align 8 dereferenceable(16) %22)
          to label %_ZN6symfpu13unpackedFloatIN4cvc58internal13symfpuLiteral6traitsEED2Ev.exit unwind label %36

36:                                               ; preds = %_ZN4cvc58internal9BitVectorD2Ev.exit.i
  %37 = landingpad { ptr, i32 }
          catch ptr null
  %38 = extractvalue { ptr, i32 } %37, 0
  call void @__clang_call_terminate(ptr %38) #17
  unreachable

_ZN6symfpu13unpackedFloatIN4cvc58internal13symfpuLiteral6traitsEED2Ev.exit: ; preds = %_ZN4cvc58internal9BitVectorD2Ev.exit.i
  ret void

39:                                               ; preds = %.noexc, %4
  %40 = landingpad { ptr, i32 }
          cleanup
  br label %.body

.body:                                            ; preds = %28, %39
  %eh.lpad-body = phi { ptr, i32 } [ %40, %39 ], [ %29, %28 ]
  call void @_ZN6symfpu13unpackedFloatIN4cvc58internal13symfpuLiteral6traitsEED2Ev(ptr noundef nonnull align 8 dereferenceable(56) %5) #16
  resume { ptr, i32 } %eh.lpad-body
}